; ModuleID = '29/1906.c'
source_filename = "29/1906.c"
target datalayout = "e-m:e-p270:32:32-p271:32:32-p272:64:64-i64:64-f80:128-n8:16:32:64-S128"
target triple = "x86_64-pc-linux-gnu"

@.str = private unnamed_addr constant [3 x i8] c"%d\00", align 1
@.str.1 = private unnamed_addr constant [5 x i8] c"%.3f\00", align 1
@.str.2 = private unnamed_addr constant [2 x i8] c"\0A\00", align 1

; Function Attrs: noinline nounwind uwtable
define dso_local i32 @main() #0 {
  %1 = alloca i32, align 4
  %2 = alloca double, align 8
  %3 = alloca double, align 8
  %4 = alloca double, align 8
  %5 = alloca i32, align 4
  %6 = alloca i32, align 4
  %7 = alloca i32, align 4
  %8 = alloca i32, align 4
  %9 = alloca double, align 8
  %10 = alloca double, align 8
  %11 = alloca [100 x i32], align 16
  store i32 0, i32* %1, align 4
  store double 2.000000e+00, double* %2, align 8
  store double 1.000000e+00, double* %3, align 8
  store double 0.000000e+00, double* %9, align 8
  %12 = call i32 (i8*, ...) @__isoc99_scanf(i8* getelementptr inbounds ([3 x i8], [3 x i8]* @.str, i64 0, i64 0), i32* %8)
  store i32 1, i32* %5, align 4
  br label %13

13:                                               ; preds = %22, %0
  %14 = load i32, i32* %5, align 4
  %15 = load i32, i32* %8, align 4
  %16 = icmp sle i32 %14, %15
  br i1 %16, label %17, label %25

17:                                               ; preds = %13
  %18 = load i32, i32* %5, align 4
  %19 = sext i32 %18 to i64
  %20 = getelementptr inbounds [100 x i32], [100 x i32]* %11, i64 0, i64 %19
  %21 = call i32 (i8*, ...) @__isoc99_scanf(i8* getelementptr inbounds ([3 x i8], [3 x i8]* @.str, i64 0, i64 0), i32* %20)
  br label %22

22:                                               ; preds = %17
  %23 = load i32, i32* %5, align 4
  %24 = add nsw i32 %23, 1
  store i32 %24, i32* %5, align 4
  br label %13

25:                                               ; preds = %13
  store i32 1, i32* %7, align 4
  br label %26

26:                                               ; preds = %57, %25
  %27 = load i32, i32* %7, align 4
  %28 = load i32, i32* %8, align 4
  %29 = icmp sle i32 %27, %28
  br i1 %29, label %30, label %60

30:                                               ; preds = %26
  store i32 1, i32* %6, align 4
  br label %31

31:                                               ; preds = %50, %30
  %32 = load i32, i32* %6, align 4
  %33 = load i32, i32* %7, align 4
  %34 = sext i32 %33 to i64
  %35 = getelementptr inbounds [100 x i32], [100 x i32]* %11, i64 0, i64 %34
  %36 = load i32, i32* %35, align 4
  %37 = icmp sle i32 %32, %36
  br i1 %37, label %38, label %53

38:                                               ; preds = %31
  %39 = load double, double* %2, align 8
  %40 = load double, double* %3, align 8
  %41 = fdiv double %39, %40
  store double %41, double* %10, align 8
  %42 = load double, double* %9, align 8
  %43 = load double, double* %10, align 8
  %44 = fadd double %42, %43
  store double %44, double* %9, align 8
  %45 = load double, double* %3, align 8
  %46 = load double, double* %2, align 8
  %47 = fadd double %45, %46
  store double %47, double* %4, align 8
  %48 = load double, double* %2, align 8
  store double %48, double* %3, align 8
  %49 = load double, double* %4, align 8
  store double %49, double* %2, align 8
  br label %50

50:                                               ; preds = %38
  %51 = load i32, i32* %6, align 4
  %52 = add nsw i32 %51, 1
  store i32 %52, i32* %6, align 4
  br label %31

53:                                               ; preds = %31
  %54 = load double, double* %9, align 8
  %55 = call i32 (i8*, ...) @printf(i8* getelementptr inbounds ([5 x i8], [5 x i8]* @.str.1, i64 0, i64 0), double %54)
  store double 0.000000e+00, double* %9, align 8
  store double 2.000000e+00, double* %2, align 8
  store double 1.000000e+00, double* %3, align 8
  %56 = call i32 (i8*, ...) @printf(i8* getelementptr inbounds ([2 x i8], [2 x i8]* @.str.2, i64 0, i64 0))
  br label %57

57:                                               ; preds = %53
  %58 = load i32, i32* %7, align 4
  %59 = add nsw i32 %58, 1
  store i32 %59, i32* %7, align 4
  br label %26

60:                                               ; preds = %26
  ret i32 0
}

declare dso_local i32 @__isoc99_scanf(i8*, ...) #1

declare dso_local i32 @printf(i8*, ...) #1


!llvm.module.flags = !{!0}
!llvm.ident = !{!1}

!0 = !{i32 1, !"wchar_size", i32 4}
!1 = !{!"clang version 10.0.0-4ubuntu1 "}
